(dp1
S'output'
p2
S'<class \'xmlrpclib.Fault\'> <Fault 1: \'<type \\\'exceptions.Exception\\\'>:method "xml" is not supported\'>'
p3
sS'layer'
p4
S'/var/www/web2py/applications/moviedb/views/generic.html'
p5
sS'code'
p6
S'response.write(\'<!DOCTYPE html>\\n<!-- paulirish.com/2008/conditional-stylesheets-vs-css-hacks-answer-neither/ -->\\n<!--[if lt IE 7]><html class="ie ie6 ie-lte9 ie-lte8 ie-lte7 no-js" lang="\', escape=False)\nresponse.write(T.accepted_language or \'en\')\nresponse.write(\'"> <![endif]-->\\n<!--[if IE 7]><html class="ie ie7 ie-lte9 ie-lte8 ie-lte7 no-js" lang="\', escape=False)\nresponse.write(T.accepted_language or \'en\')\nresponse.write(\'"> <![endif]-->\\n<!--[if IE 8]><html class="ie ie8 ie-lte9 ie-lte8 no-js" lang="\', escape=False)\nresponse.write(T.accepted_language or \'en\')\nresponse.write(\'"> <![endif]-->\\n<!--[if IE 9]><html class="ie9 ie-lte9 no-js" lang="\', escape=False)\nresponse.write(T.accepted_language or \'en\')\nresponse.write(\'"> <![endif]-->\\n<!--[if (gt IE 9)|!(IE)]><!--> <html class="no-js" lang="\', escape=False)\nresponse.write(T.accepted_language or \'en\')\nresponse.write(\'"> <!--<![endif]-->\\n<head>\\n  <meta charset="utf-8" />\\n  <!-- www.phpied.com/conditional-comments-block-downloads/ -->\\n  <!-- Always force latest IE rendering engine\\n       (even in intranet) & Chrome Frame\\n       Remove this if you use the .htaccess -->\\n  <!--[if IE]>\\n      <meta http-equiv="X-UA-Compatible" content="IE=edge\', escape=False)\nresponse.write(not request.is_local and \',chrome=1\' or \'\')\nresponse.write(\'">\\n      <![endif]-->\\n\\n  <title>\', escape=False)\nresponse.write(response.title or request.application)\nresponse.write(\'</title>\\n\\n  <!-- http://dev.w3.org/html5/markup/meta.name.html -->\\n  <meta name="application-name" content="\', escape=False)\nresponse.write(request.application)\nresponse.write(\'" />\\n\\n  <!-- Speaking of Google, don\\\'t forget to set your site up:\\n       http://google.com/webmasters -->\\n  <meta name="google-site-verification" content="" />\\n\\n  <!--  Mobile Viewport Fix\\n        j.mp/mobileviewport & davidbcalhoun.com/2010/viewport-metatag\\n        device-width: Occupy full width of the screen in its current orientation\\n        initial-scale = 1.0 retains dimensions instead of zooming out if page height > device height\\n        user-scalable = yes allows the user to zoom in -->\\n  <meta name="viewport" content="width=device-width, initial-scale=1.0" />\\n\\n  <link rel="shortcut icon" href="\', escape=False)\nresponse.write(URL(\'static\',\'images/favicon.ico\'))\nresponse.write(\'" type="image/x-icon">\\n  <link rel="apple-touch-icon" href="\', escape=False)\nresponse.write(URL(\'static\',\'images/favicon.png\'))\nresponse.write(\'">\\n\\n  <!-- All JavaScript at the bottom, except for Modernizr which enables\\n       HTML5 elements & feature detects -->\\n  <script src="\', escape=False)\nresponse.write(URL(\'static\',\'js/modernizr.custom.js\'))\nresponse.write(\'"></script>\\n\\n  <!-- include stylesheets -->\\n  \', escape=False)\nresponse.files.append(URL(\'static\',\'css/web2py.css\'))\nresponse.files.append(URL(\'static\',\'css/bootstrap.min.css\'))\nresponse.files.append(URL(\'static\',\'css/bootstrap-responsive.min.css\'))\nresponse.files.append(URL(\'static\',\'css/web2py_bootstrap.css\'))\nresponse.files.append(URL(\'static\',\'css/moviedb.css\'))\nresponse.write(\'\\n\\n  \', escape=False)\nresponse.write(\'<script type="text/javascript"><!--\\n    // These variables are used by the web2py_ajax_init function in web2py_ajax.js (which is loaded below).\\n    var w2p_ajax_confirm_message = "\', escape=False)\nresponse.write(T(\'Are you sure you want to delete this object?\'))\nresponse.write(\'";\\n    var w2p_ajax_date_format = "\', escape=False)\nresponse.write(T(\'%Y-%m-%d\'))\nresponse.write(\'";\\n    var w2p_ajax_datetime_format = "\', escape=False)\nresponse.write(T(\'%Y-%m-%d %H:%M:%S\'))\nresponse.write(\'";\\n    //--></script>\\n\', escape=False)\nresponse.files.insert(0,URL(\'static\',\'js/jquery.js\'))\nresponse.files.insert(1,URL(\'static\',\'css/calendar.css\'))\nresponse.files.insert(2,URL(\'static\',\'js/calendar.js\'))\nresponse.files.insert(3,URL(\'static\',\'js/web2py.js\'))\nresponse.include_meta()\nresponse.include_files()\nresponse.write(\'\\n\', escape=False)\nresponse.write(\'\\n\\n  \', escape=False)\n# using sidebars need to know what sidebar you want to use\nleft_sidebar_enabled = globals().get(\'left_sidebar_enabled\',False)\nright_sidebar_enabled = globals().get(\'right_sidebar_enabled\',False)\nmiddle_columns = {0:\'span12\',1:\'span9\',2:\'span6\'}[\n(left_sidebar_enabled and 1 or 0)+(right_sidebar_enabled and 1 or 0)]\nresponse.write(\'\\n\\n  <!-- uncomment here to load jquery-ui\\n       <link rel="stylesheet" href="http://ajax.googleapis.com/ajax/libs/jqueryui/1.8.16/themes/base/jquery-ui.css" type="text/css" media="all" />\\n       <script src="http://ajax.googleapis.com/ajax/libs/jqueryui/1.8.16/jquery-ui.min.js" type="text/javascript"></script>\\n       uncomment to load jquery-ui //-->\\n  <noscript><link href="\', escape=False)\nresponse.write(URL(\'static\', \'css/web2py_bootstrap_nojs.css\'))\nresponse.write(\'" rel="stylesheet" type="text/css" /></noscript>\\n  \', escape=False)\nresponse.write(\'\\n</head>\\n\\n<body>\\n  <!-- Navbar ================================================== -->\\n  <div class="navbar navbar-inverse navbar-fixed-top">\\n    <div class="flash">\', escape=False)\nresponse.write(response.flash or \'\')\nresponse.write(\'</div>\\n    <div class="navbar-inner">\\n      <div class="container">\\n        <!-- the next tag is necessary for bootstrap menus, do not remove -->\\n        <button type="button" class="btn btn-navbar" data-toggle="collapse" data-target=".nav-collapse">\\n          <span class="icon-bar"></span>\\n          <span class="icon-bar"></span>\\n          <span class="icon-bar"></span>\\n        </button>\\n\\t\', escape=False)\nresponse.write(response.logo or \'\')\nresponse.write(\'\\n        <ul id="navbar" class="nav pull-right">\', escape=False)\nresponse.write(\'auth\' in globals() and auth.navbar(mode="dropdown") or \'\')\nresponse.write(\'</ul>\\n        <div class="nav-collapse">\\n          \', escape=False)\nis_mobile=request.user_agent().is_mobile\nresponse.write(\'\\n          \', escape=False)\nif response.menu:\n    response.write(\'\\n          \', escape=False)\n    response.write(MENU(response.menu, _class=\'mobile-menu nav\' if is_mobile else \'nav\',mobile=is_mobile,li_class=\'dropdown\',ul_class=\'dropdown-menu\'))\n    response.write(\'\\n          \', escape=False)\n    pass\nresponse.write(\'\\n        </div><!--/.nav-collapse -->\\n      </div>\\n    </div>\\n  </div><!--/top navbar -->\\n\\n  <div class="container">\\n    <!-- Masthead ================================================== -->\\n    <header class="mastheader row" id="header">\\n        <div class="span12">\\n            <div class="page-header">\\n                <h1>\\n                    \', escape=False)\nresponse.write(response.title or request.application)\nresponse.write(\'\\n                    <small>\', escape=False)\nresponse.write(response.subtitle or \'\')\nresponse.write(\'</small>\\n                </h1>\\n            </div>\\n        </div>\\n    </header>\\n\\n    <section id="main" class="main row">\\n        \', escape=False)\nif left_sidebar_enabled:\n    response.write(\'\\n        <div class="span3 left-sidebar">\\n            \', escape=False)\n    response.write(\'\\n            <h3>Left Sidebar</h3>\\n            <p></p>\\n            \', escape=False)\n    response.write(\'\\n        </div>\\n        \', escape=False)\n    pass\nresponse.write(\'\\n\\n        <div class="\', escape=False)\nresponse.write(middle_columns)\nresponse.write(\'">\\n            \', escape=False)\nresponse.write(\'\\n            \', escape=False)\nresponse.write(\'\\n\', escape=False)\n"""\\n\\nYou should not modify this file. \\nIt is used as default when a view is not provided for your controllers\\n\\n"""\nresponse.write(\'\\n<h2>\', escape=False)\nresponse.write(\' \'.join(x.capitalize() for x in request.function.split(\'_\')))\nresponse.write(\'</h2>\\n\', escape=False)\nif len(response._vars)==1:\n    response.write(\'\\n\', escape=False)\n    response.write(BEAUTIFY(response._vars.values()[0]))\n    response.write(\'\\n\', escape=False)\nelif len(response._vars)>1:\n    response.write(\'\\n\', escape=False)\n    response.write(BEAUTIFY(response._vars))\n    response.write(\'\\n\', escape=False)\n    pass\nresponse.write(\'\\n\', escape=False)\nif request.is_local:\n    response.write(\'\\n\', escape=False)\n    response.write(response.toolbar())\n    response.write(\'\\n\', escape=False)\n    pass\nresponse.write(\'\\n\', escape=False)\nresponse.write(\'\\n            \', escape=False)\nresponse.write(\'\\n        </div>\\n\\n        \', escape=False)\nif right_sidebar_enabled:\n    response.write(\'\\n        <div class="span3">\\n            \', escape=False)\n    response.write(\'\\n            <h3>Right Sidebar</h3>\\n            <p></p>\\n            \', escape=False)\n    response.write(\'\\n        </div>\\n        \', escape=False)\n    pass\nresponse.write(\'\\n    </section><!--/main-->\\n\\n    <!-- Footer ================================================== -->\\n    <div class="row">\\n        <footer class="footer span12" id="footer">\\n            <div class="footer-content">\\n                \', escape=False)\nresponse.write(\' <!-- this is default footer -->\\n                <div class="copyright pull-left">\', escape=False)\nresponse.write(T(\'Copyright\'))\nresponse.write(\' &#169; \', escape=False)\nresponse.write(request.now.year)\nresponse.write(\'</div>\\n                <div id="poweredBy" class="pull-right">\\n                    \', escape=False)\nresponse.write(T(\'Powered by\'))\nresponse.write(\'\\n                    <a href="http://www.web2py.com/">web2py</a>\\n                </div>\\n                \', escape=False)\nresponse.write(\'\\n            </div>\\n        </footer>\\n    </div>\\n\\n  </div> <!-- /container -->\\n\\n  <!-- The javascript =============================================\\n       (Placed at the end of the document so the pages load faster) -->\\n  <script src="\', escape=False)\nresponse.write(URL(\'static\',\'js/bootstrap.min.js\'))\nresponse.write(\'"></script>\\n  <script src="\', escape=False)\nresponse.write(URL(\'static\',\'js/web2py_bootstrap.js\'))\nresponse.write(\'"></script>\\n  <!--[if lt IE 7 ]>\\n      <script src="\', escape=False)\nresponse.write(URL(\'static\',\'js/dd_belatedpng.js\'))\nresponse.write(\'"></script>\\n      <script> DD_belatedPNG.fix(\\\'img, .png_bg\\\'); //fix any <img> or .png_bg background-images </script>\\n      <![endif]-->\\n  \\n  \', escape=False)\nif response.google_analytics_id:\n    response.write(\'\\n  <script src="\', escape=False)\n    response.write(URL(\'static\',\'js/analytics.js\'))\n    response.write(\'"></script>\\n  <script type="text/javascript">\\n  analytics.initialize({\\n    \\\'Google Analytics\\\':{trackingId:\\\'\', escape=False)\n    response.write(response.google_analytics_id)\n    response.write("\'} \\n  });</script>\\n  ", escape=False)\n    pass\nresponse.write(\'\\n  <script src="\', escape=False)\nresponse.write(URL(\'static\',\'js/share.js\',vars=dict(static=URL(\'static\',\'images\'))))\nresponse.write(\'"></script>\\n</body>\\n</html>\\n\', escape=False)'
p7
sS'snapshot'
p8
(dp9
S'exception'
p10
(dp11
S'__module__'
p12
S"'xmlrpclib'"
p13
sS'__getslice__'
p14
S"<method-wrapper '__getslice__' of Fault object>"
p15
sS'__str__'
p16
S'<bound method Fault.__str__ of <Fault 1: \'<type ...ons.Exception\\\'>:method "xml" is not supported\'>>'
p17
sS'__reduce__'
p18
S'<built-in method __reduce__ of Fault object>'
p19
sS'__dict__'
p20
S'{\'faultCode\': 1, \'faultString\': \'<type \\\'exceptions.Exception\\\'>:method "xml" is not supported\'}'
p21
sS'__sizeof__'
p22
S'<built-in method __sizeof__ of Fault object>'
p23
sS'__weakref__'
p24
S'None'
p25
sS'__init__'
p26
S'<bound method Fault.__init__ of <Fault 1: \'<type...ons.Exception\\\'>:method "xml" is not supported\'>>'
p27
sS'__setattr__'
p28
S"<method-wrapper '__setattr__' of Fault object>"
p29
sS'__reduce_ex__'
p30
S'<built-in method __reduce_ex__ of Fault object>'
p31
sS'__new__'
p32
S'<built-in method __new__ of type object>'
p33
sS'__format__'
p34
S'<built-in method __format__ of Fault object>'
p35
sS'__class__'
p36
S"<class 'xmlrpclib.Fault'>"
p37
sS'faultCode'
p38
S'1'
sS'faultString'
p39
S'\'<type \\\'exceptions.Exception\\\'>:method "xml" is not supported\''
p40
sS'__doc__'
p41
S"'Indicates an XML-RPC fault package.'"
p42
sS'__getitem__'
p43
S"<method-wrapper '__getitem__' of Fault object>"
p44
sS'__setstate__'
p45
S'<built-in method __setstate__ of Fault object>'
p46
sS'__getattribute__'
p47
S"<method-wrapper '__getattribute__' of Fault object>"
p48
sS'args'
p49
S'()'
p50
sS'__subclasshook__'
p51
S'<built-in method __subclasshook__ of type object>'
p52
sS'__unicode__'
p53
S'<built-in method __unicode__ of Fault object>'
p54
sS'__delattr__'
p55
S"<method-wrapper '__delattr__' of Fault object>"
p56
sS'__repr__'
p57
S'<bound method Fault.__repr__ of <Fault 1: \'<type...ons.Exception\\\'>:method "xml" is not supported\'>>'
p58
sS'__hash__'
p59
S"<method-wrapper '__hash__' of Fault object>"
p60
ssS'evalue'
p61
S'<Fault 1: \'<type \\\'exceptions.Exception\\\'>:method "xml" is not supported\'>'
p62
sS'request'
p63
cgluon.html
XML_unpickle
p64
(S's\x97a\x00\x00<div><table><tr><td style="font-weight:bold;vertical-align:top">ajax</td><td valign="top">:</td><td><div>False</div></td></tr><tr><td style="font-weight:bold;vertical-align:top">application</td><td valign="top">:</td><td><div>moviedb</div></td></tr><tr><td style="font-weight:bold;vertical-align:top">args</td><td valign="top">:</td><td><div><table></table></div></td></tr><tr><td style="font-weight:bold;vertical-align:top">body</td><td valign="top">:</td><td><div>&lt;cStringIO.StringO object at 0xa7867b80&gt;</div></td></tr><tr><td style="font-weight:bold;vertical-align:top">cid</td><td valign="top">:</td><td><div>None</div></td></tr><tr><td style="font-weight:bold;vertical-align:top">client</td><td valign="top">:</td><td><div>127.0.0.1</div></td></tr><tr><td style="font-weight:bold;vertical-align:top">controller</td><td valign="top">:</td><td><div>default</div></td></tr><tr><td style="font-weight:bold;vertical-align:top">cookies</td><td valign="top">:</td><td><div><table><tr><td style="font-weight:bold;vertical-align:top">session_id_admin</td><td valign="top">:</td><td><div>127.0.0.1-e9305ef4-db82-4943-b76a-b36074c7e4b9<table><tr><td style="font-weight:bold;vertical-align:top">comment</td><td valign="top">:</td><td><div></div></td></tr><tr><td style="font-weight:bold;vertical-align:top">domain</td><td valign="top">:</td><td><div></div></td></tr><tr><td style="font-weight:bold;vertical-align:top">expires</td><td valign="top">:</td><td><div></div></td></tr><tr><td style="font-weight:bold;vertical-align:top">httponly</td><td valign="top">:</td><td><div></div></td></tr><tr><td style="font-weight:bold;vertical-align:top">max-age</td><td valign="top">:</td><td><div></div></td></tr><tr><td style="font-weight:bold;vertical-align:top">path</td><td valign="top">:</td><td><div></div></td></tr><tr><td style="font-weight:bold;vertical-align:top">secure</td><td valign="top">:</td><td><div></div></td></tr><tr><td style="font-weight:bold;vertical-align:top">version</td><td valign="top">:</td><td><div></div></td></tr></table></div></td></tr><tr><td style="font-weight:bold;vertical-align:top">session_id_moviedb</td><td valign="top">:</td><td><div>127.0.0.1-4bfa9bed-e627-4956-9770-9f8dda731536<table><tr><td style="font-weight:bold;vertical-align:top">comment</td><td valign="top">:</td><td><div></div></td></tr><tr><td style="font-weight:bold;vertical-align:top">domain</td><td valign="top">:</td><td><div></div></td></tr><tr><td style="font-weight:bold;vertical-align:top">expires</td><td valign="top">:</td><td><div></div></td></tr><tr><td style="font-weight:bold;vertical-align:top">httponly</td><td valign="top">:</td><td><div></div></td></tr><tr><td style="font-weight:bold;vertical-align:top">max-age</td><td valign="top">:</td><td><div></div></td></tr><tr><td style="font-weight:bold;vertical-align:top">path</td><td valign="top">:</td><td><div></div></td></tr><tr><td style="font-weight:bold;vertical-align:top">secure</td><td valign="top">:</td><td><div></div></td></tr><tr><td style="font-weight:bold;vertical-align:top">version</td><td valign="top">:</td><td><div></div></td></tr></table></div></td></tr><tr><td style="font-weight:bold;vertical-align:top">session_id_turniprestito</td><td valign="top">:</td><td><div>127.0.0.1-7966e537-fc78-41a6-86f1-d611b5c8d94f<table><tr><td style="font-weight:bold;vertical-align:top">comment</td><td valign="top">:</td><td><div></div></td></tr><tr><td style="font-weight:bold;vertical-align:top">domain</td><td valign="top">:</td><td><div></div></td></tr><tr><td style="font-weight:bold;vertical-align:top">expires</td><td valign="top">:</td><td><div></div></td></tr><tr><td style="font-weight:bold;vertical-align:top">httponly</td><td valign="top">:</td><td><div></div></td></tr><tr><td style="font-weight:bold;vertical-align:top">max-age</td><td valign="top">:</td><td><div></div></td></tr><tr><td style="font-weight:bold;vertical-align:top">path</td><td valign="top">:</td><td><div></div></td></tr><tr><td style="font-weight:bold;vertical-align:top">secure</td><td valign="top">:</td><td><div></div></td></tr><tr><td style="font-weight:bold;vertical-align:top">version</td><td valign="top">:</td><td><div></div></td></tr></table></div></td></tr><tr><td style="font-weight:bold;vertical-align:top">session_id_welcome</td><td valign="top">:</td><td><div>127.0.0.1-cd8e3cb4-1a07-4893-9dc7-b81912c973a8<table><tr><td style="font-weight:bold;vertical-align:top">comment</td><td valign="top">:</td><td><div></div></td></tr><tr><td style="font-weight:bold;vertical-align:top">domain</td><td valign="top">:</td><td><div></div></td></tr><tr><td style="font-weight:bold;vertical-align:top">expires</td><td valign="top">:</td><td><div></div></td></tr><tr><td style="font-weight:bold;vertical-align:top">httponly</td><td valign="top">:</td><td><div></div></td></tr><tr><td style="font-weight:bold;vertical-align:top">max-age</td><td valign="top">:</td><td><div></div></td></tr><tr><td style="font-weight:bold;vertical-align:top">path</td><td valign="top">:</td><td><div></div></td></tr><tr><td style="font-weight:bold;vertical-align:top">secure</td><td valign="top">:</td><td><div></div></td></tr><tr><td style="font-weight:bold;vertical-align:top">version</td><td valign="top">:</td><td><div></div></td></tr></table></div></td></tr></table></div></td></tr><tr><td style="font-weight:bold;vertical-align:top">env</td><td valign="top">:</td><td><div><table><tr><td style="font-weight:bold;vertical-align:top">app_folders</td><td valign="top">:</td><td><div>set([&#x27;/var/www/web2py/applications/moviedb/&#x27;, &#x27;/var/www/web2py/applications/admin/&#x27;, &#x27;/var/www/web2py/applications/TurniPrestito/&#x27;])</div></td></tr><tr><td style="font-weight:bold;vertical-align:top">applications_parent</td><td valign="top">:</td><td><div>/var/www/web2py</div></td></tr><tr><td style="font-weight:bold;vertical-align:top">db_sessions</td><td valign="top">:</td><td><div>set([])</div></td></tr><tr><td style="font-weight:bold;vertical-align:top">debugging</td><td valign="top">:</td><td><div>True</div></td></tr><tr><td style="font-weight:bold;vertical-align:top">document_root</td><td valign="top">:</td><td><div>/var/www</div></td></tr><tr><td style="font-weight:bold;vertical-align:top">gateway_interface</td><td valign="top">:</td><td><div>CGI/1.1</div></td></tr><tr><td style="font-weight:bold;vertical-align:top">gluon_parent</td><td valign="top">:</td><td><div>/var/www/web2py</div></td></tr><tr><td style="font-weight:bold;vertical-align:top">http_accept</td><td valign="top">:</td><td><div>text/html,application/xhtml+xml,application/xml;q=0.9,*/*;q=0.8</div></td></tr><tr><td style="font-weight:bold;vertical-align:top">http_accept_encoding</td><td valign="top">:</td><td><div>gzip, deflate</div></td></tr><tr><td style="font-weight:bold;vertical-align:top">http_accept_language</td><td valign="top">:</td><td><div>it,en-us;q=0.7,en;q=0.3</div></td></tr><tr><td style="font-weight:bold;vertical-align:top">http_connection</td><td valign="top">:</td><td><div>keep-alive</div></td></tr><tr><td style="font-weight:bold;vertical-align:top">http_cookie</td><td valign="top">:</td><td><div>session_id_welcome=127.0.0.1-cd8e3cb4-1a07-4893-9dc7-b81912c973a8; session_id_admin=127.0.0.1-e9305ef4-db82-4943-b76a-b36074c7e4b9; session_id_turniprestito=127.0.0.1-7966e537-fc78-41a6-86f1-d611b5c8d94f; session_id_moviedb=127.0.0.1-4bfa9bed-e627-4956-9770-9f8dda731536</div></td></tr><tr><td style="font-weight:bold;vertical-align:top">http_dnt</td><td valign="top">:</td><td><div>1</div></td></tr><tr><td style="font-weight:bold;vertical-align:top">http_host</td><td valign="top">:</td><td><div>web2py.localdomain</div></td></tr><tr><td style="font-weight:bold;vertical-align:top">http_user_agent</td><td valign="top">:</td><td><div>Mozilla/5.0 (X11; Ubuntu; Linux i686; rv:20.0) Gecko/20100101 Firefox/20.0</div></td></tr><tr><td style="font-weight:bold;vertical-align:top">is_jython</td><td valign="top">:</td><td><div>False</div></td></tr><tr><td style="font-weight:bold;vertical-align:top">is_pypy</td><td valign="top">:</td><td><div>False</div></td></tr><tr><td style="font-weight:bold;vertical-align:top">local_hosts</td><td valign="top">:</td><td><div><table><tr><td><div>u6b301a.biblio.unimib.it</div></td></tr><tr><td><div>149.132.118.92</div></td></tr><tr><td><div>::ffff:127.0.0.1</div></td></tr><tr><td><div>::1</div></td></tr><tr><td><div>u6b301a</div></td></tr><tr><td><div>web2py.localdomain</div></td></tr><tr><td><div>127.0.0.12</div></td></tr><tr><td><div>127.0.0.1</div></td></tr></table></div></td></tr><tr><td style="font-weight:bold;vertical-align:top">mod_wsgi_application_group</td><td valign="top">:</td><td><div>web2py.localdomain|</div></td></tr><tr><td style="font-weight:bold;vertical-align:top">mod_wsgi_callable_object</td><td valign="top">:</td><td><div>application</div></td></tr><tr><td style="font-weight:bold;vertical-align:top">mod_wsgi_enable_sendfile</td><td valign="top">:</td><td><div>0</div></td></tr><tr><td style="font-weight:bold;vertical-align:top">mod_wsgi_handler_script</td><td valign="top">:</td><td><div></div></td></tr><tr><td style="font-weight:bold;vertical-align:top">mod_wsgi_input_chunked</td><td valign="top">:</td><td><div>0</div></td></tr><tr><td style="font-weight:bold;vertical-align:top">mod_wsgi_listener_host</td><td valign="top">:</td><td><div>127.0.0.12</div></td></tr><tr><td style="font-weight:bold;vertical-align:top">mod_wsgi_listener_port</td><td valign="top">:</td><td><div>443</div></td></tr><tr><td style="font-weight:bold;vertical-align:top">mod_wsgi_process_group</td><td valign="top">:</td><td><div>web2py</div></td></tr><tr><td style="font-weight:bold;vertical-align:top">mod_wsgi_queue_start</td><td valign="top">:</td><td><div>1366363766704685</div></td></tr><tr><td style="font-weight:bold;vertical-align:top">mod_wsgi_request_handler</td><td valign="top">:</td><td><div>wsgi-script</div></td></tr><tr><td style="font-weight:bold;vertical-align:top">mod_wsgi_script_reloading</td><td valign="top">:</td><td><div>1</div></td></tr><tr><td style="font-weight:bold;vertical-align:top">mod_wsgi_version</td><td valign="top">:</td><td><div><table><tr><td><div>3</div></td></tr><tr><td><div>4</div></td></tr></table></div></td></tr><tr><td style="font-weight:bold;vertical-align:top">path_info</td><td valign="top">:</td><td><div>/moviedb/default/xmlurl</div></td></tr><tr><td style="font-weight:bold;vertical-align:top">path_translated</td><td valign="top">:</td><td><div>/var/www/web2py/wsgihandler.py/moviedb/default/xmlurl</div></td></tr><tr><td style="font-weight:bold;vertical-align:top">query_string</td><td valign="top">:</td><td><div></div></td></tr><tr><td style="font-weight:bold;vertical-align:top">remote_addr</td><td valign="top">:</td><td><div>127.0.0.1</div></td></tr><tr><td style="font-weight:bold;vertical-align:top">remote_port</td><td valign="top">:</td><td><div>36074</div></td></tr><tr><td style="font-weight:bold;vertical-align:top">request_method</td><td valign="top">:</td><td><div>GET</div></td></tr><tr><td style="font-weight:bold;vertical-align:top">request_uri</td><td valign="top">:</td><td><div>/moviedb/default/xmlurl</div></td></tr><tr><td style="font-weight:bold;vertical-align:top">script_filename</td><td valign="top">:</td><td><div>/var/www/web2py/wsgihandler.py</div></td></tr><tr><td style="font-weight:bold;vertical-align:top">script_name</td><td valign="top">:</td><td><div></div></td></tr><tr><td style="font-weight:bold;vertical-align:top">server_addr</td><td valign="top">:</td><td><div>127.0.0.12</div></td></tr><tr><td style="font-weight:bold;vertical-align:top">server_admin</td><td valign="top">:</td><td><div>[no address given]</div></td></tr><tr><td style="font-weight:bold;vertical-align:top">server_name</td><td valign="top">:</td><td><div>web2py.localdomain</div></td></tr><tr><td style="font-weight:bold;vertical-align:top">server_port</td><td valign="top">:</td><td><div>443</div></td></tr><tr><td style="font-weight:bold;vertical-align:top">server_protocol</td><td valign="top">:</td><td><div>HTTP/1.1</div></td></tr><tr><td style="font-weight:bold;vertical-align:top">server_signature</td><td valign="top">:</td><td><div>&lt;address&gt;Apache/2.2.22 (Ubuntu) Server at web2py.localdomain Port 443&lt;/address&gt;\n</div></td></tr><tr><td style="font-weight:bold;vertical-align:top">server_software</td><td valign="top">:</td><td><div>Apache/2.2.22 (Ubuntu)</div></td></tr><tr><td style="font-weight:bold;vertical-align:top">ssl_tls_sni</td><td valign="top">:</td><td><div>web2py.localdomain</div></td></tr><tr><td style="font-weight:bold;vertical-align:top">web2py_path</td><td valign="top">:</td><td><div>/var/www/web2py</div></td></tr><tr><td style="font-weight:bold;vertical-align:top">web2py_version</td><td valign="top">:</td><td><div>2.4.6-stable+timestamp.2013.04.06.17.37.38</div></td></tr><tr><td style="font-weight:bold;vertical-align:top">wsgi_errors</td><td valign="top">:</td><td><div>&lt;mod_wsgi.Log object at 0xa7761980&gt;</div></td></tr><tr><td style="font-weight:bold;vertical-align:top">wsgi_file_wrapper</td><td valign="top">:</td><td><div>&lt;built-in method file_wrapper of mod_wsgi.Adapter object at 0xb8c47140&gt;</div></td></tr><tr><td style="font-weight:bold;vertical-align:top">wsgi_input</td><td valign="top">:</td><td><div>&lt;mod_wsgi.Input object at 0xa7791548&gt;</div></td></tr><tr><td style="font-weight:bold;vertical-align:top">wsgi_multiprocess</td><td valign="top">:</td><td><div>False</div></td></tr><tr><td style="font-weight:bold;vertical-align:top">wsgi_multithread</td><td valign="top">:</td><td><div>True</div></td></tr><tr><td style="font-weight:bold;vertical-align:top">wsgi_run_once</td><td valign="top">:</td><td><div>False</div></td></tr><tr><td style="font-weight:bold;vertical-align:top">wsgi_url_scheme</td><td valign="top">:</td><td><div>https</div></td></tr><tr><td style="font-weight:bold;vertical-align:top">wsgi_version</td><td valign="top">:</td><td><div><table><tr><td><div>1</div></td></tr><tr><td><div>0</div></td></tr></table></div></td></tr></table></div></td></tr><tr><td style="font-weight:bold;vertical-align:top">extension</td><td valign="top">:</td><td><div>html</div></td></tr><tr><td style="font-weight:bold;vertical-align:top">folder</td><td valign="top">:</td><td><div>/var/www/web2py/applications/moviedb/</div></td></tr><tr><td style="font-weight:bold;vertical-align:top">function</td><td valign="top">:</td><td><div>xmlurl</div></td></tr><tr><td style="font-weight:bold;vertical-align:top">get_vars</td><td valign="top">:</td><td><div><table></table></div></td></tr><tr><td style="font-weight:bold;vertical-align:top">global_settings</td><td valign="top">:</td><td><div><table><tr><td style="font-weight:bold;vertical-align:top">app_folders</td><td valign="top">:</td><td><div>set([&#x27;/var/www/web2py/applications/moviedb/&#x27;, &#x27;/var/www/web2py/applications/admin/&#x27;, &#x27;/var/www/web2py/applications/TurniPrestito/&#x27;])</div></td></tr><tr><td style="font-weight:bold;vertical-align:top">applications_parent</td><td valign="top">:</td><td><div>/var/www/web2py</div></td></tr><tr><td style="font-weight:bold;vertical-align:top">db_sessions</td><td valign="top">:</td><td><div>set([])</div></td></tr><tr><td style="font-weight:bold;vertical-align:top">debugging</td><td valign="top">:</td><td><div>True</div></td></tr><tr><td style="font-weight:bold;vertical-align:top">gluon_parent</td><td valign="top">:</td><td><div>/var/www/web2py</div></td></tr><tr><td style="font-weight:bold;vertical-align:top">is_jython</td><td valign="top">:</td><td><div>False</div></td></tr><tr><td style="font-weight:bold;vertical-align:top">is_pypy</td><td valign="top">:</td><td><div>False</div></td></tr><tr><td style="font-weight:bold;vertical-align:top">local_hosts</td><td valign="top">:</td><td><div><table><tr><td><div>u6b301a.biblio.unimib.it</div></td></tr><tr><td><div>149.132.118.92</div></td></tr><tr><td><div>::ffff:127.0.0.1</div></td></tr><tr><td><div>::1</div></td></tr><tr><td><div>u6b301a</div></td></tr><tr><td><div>web2py.localdomain</div></td></tr><tr><td><div>127.0.0.12</div></td></tr><tr><td><div>127.0.0.1</div></td></tr></table></div></td></tr><tr><td style="font-weight:bold;vertical-align:top">web2py_version</td><td valign="top">:</td><td><div>2.4.6-stable+timestamp.2013.04.06.17.37.38</div></td></tr></table></div></td></tr><tr><td style="font-weight:bold;vertical-align:top">is_https</td><td valign="top">:</td><td><div>True</div></td></tr><tr><td style="font-weight:bold;vertical-align:top">is_local</td><td valign="top">:</td><td><div>True</div></td></tr><tr><td style="font-weight:bold;vertical-align:top">is_restful</td><td valign="top">:</td><td><div>False</div></td></tr><tr><td style="font-weight:bold;vertical-align:top">now</td><td valign="top">:</td><td><div>datetime.datetime(2013, 4, 19, 11, 29, 26, 705086)</div></td></tr><tr><td style="font-weight:bold;vertical-align:top">post_vars</td><td valign="top">:</td><td><div><table></table></div></td></tr><tr><td style="font-weight:bold;vertical-align:top">raw_args</td><td valign="top">:</td><td><div></div></td></tr><tr><td style="font-weight:bold;vertical-align:top">raw_extension</td><td valign="top">:</td><td><div>None</div></td></tr><tr><td style="font-weight:bold;vertical-align:top">url</td><td valign="top">:</td><td><div>/moviedb/default/xmlurl</div></td></tr><tr><td style="font-weight:bold;vertical-align:top">utcnow</td><td valign="top">:</td><td><div>datetime.datetime(2013, 4, 19, 9, 29, 26, 705103)</div></td></tr><tr><td style="font-weight:bold;vertical-align:top">uuid</td><td valign="top">:</td><td><div>moviedb/127.0.0.1.2013-04-19.11-29-26.afc79eb6-7857-4cb2-aa14-24c60c77747c</div></td></tr><tr><td style="font-weight:bold;vertical-align:top">vars</td><td valign="top">:</td><td><div><table></table></div></td></tr><tr><td style="font-weight:bold;vertical-align:top">wsgi</td><td valign="top">:</td><td><div><table><tr><td style="font-weight:bold;vertical-align:top">environ</td><td valign="top">:</td><td><div><table><tr><td style="font-weight:bold;vertical-align:top">DOCUMENT_ROOT</td><td valign="top">:</td><td><div>/var/www</div></td></tr><tr><td style="font-weight:bold;vertical-align:top">GATEWAY_INTERFACE</td><td valign="top">:</td><td><div>CGI/1.1</div></td></tr><tr><td style="font-weight:bold;vertical-align:top">HTTP_ACCEPT</td><td valign="top">:</td><td><div>text/html,application/xhtml+xml,application/xml;q=0.9,*/*;q=0.8</div></td></tr><tr><td style="font-weight:bold;vertical-align:top">HTTP_ACCEPT_ENCODING</td><td valign="top">:</td><td><div>gzip, deflate</div></td></tr><tr><td style="font-weight:bold;vertical-align:top">HTTP_ACCEPT_LANGUAGE</td><td valign="top">:</td><td><div>it,en-us;q=0.7,en;q=0.3</div></td></tr><tr><td style="font-weight:bold;vertical-align:top">HTTP_CONNECTION</td><td valign="top">:</td><td><div>keep-alive</div></td></tr><tr><td style="font-weight:bold;vertical-align:top">HTTP_COOKIE</td><td valign="top">:</td><td><div>session_id_welcome=127.0.0.1-cd8e3cb4-1a07-4893-9dc7-b81912c973a8; session_id_admin=127.0.0.1-e9305ef4-db82-4943-b76a-b36074c7e4b9; session_id_turniprestito=127.0.0.1-7966e537-fc78-41a6-86f1-d611b5c8d94f; session_id_moviedb=127.0.0.1-4bfa9bed-e627-4956-9770-9f8dda731536</div></td></tr><tr><td style="font-weight:bold;vertical-align:top">HTTP_DNT</td><td valign="top">:</td><td><div>1</div></td></tr><tr><td style="font-weight:bold;vertical-align:top">HTTP_HOST</td><td valign="top">:</td><td><div>web2py.localdomain</div></td></tr><tr><td style="font-weight:bold;vertical-align:top">HTTP_USER_AGENT</td><td valign="top">:</td><td><div>Mozilla/5.0 (X11; Ubuntu; Linux i686; rv:20.0) Gecko/20100101 Firefox/20.0</div></td></tr><tr><td style="font-weight:bold;vertical-align:top">PATH_INFO</td><td valign="top">:</td><td><div>/moviedb/default/xmlurl</div></td></tr><tr><td style="font-weight:bold;vertical-align:top">PATH_TRANSLATED</td><td valign="top">:</td><td><div>/var/www/web2py/wsgihandler.py/moviedb/default/xmlurl</div></td></tr><tr><td style="font-weight:bold;vertical-align:top">QUERY_STRING</td><td valign="top">:</td><td><div></div></td></tr><tr><td style="font-weight:bold;vertical-align:top">REMOTE_ADDR</td><td valign="top">:</td><td><div>127.0.0.1</div></td></tr><tr><td style="font-weight:bold;vertical-align:top">REMOTE_PORT</td><td valign="top">:</td><td><div>36074</div></td></tr><tr><td style="font-weight:bold;vertical-align:top">REQUEST_METHOD</td><td valign="top">:</td><td><div>GET</div></td></tr><tr><td style="font-weight:bold;vertical-align:top">REQUEST_URI</td><td valign="top">:</td><td><div>/moviedb/default/xmlurl</div></td></tr><tr><td style="font-weight:bold;vertical-align:top">SCRIPT_FILENAME</td><td valign="top">:</td><td><div>/var/www/web2py/wsgihandler.py</div></td></tr><tr><td style="font-weight:bold;vertical-align:top">SCRIPT_NAME</td><td valign="top">:</td><td><div></div></td></tr><tr><td style="font-weight:bold;vertical-align:top">SERVER_ADDR</td><td valign="top">:</td><td><div>127.0.0.12</div></td></tr><tr><td style="font-weight:bold;vertical-align:top">SERVER_ADMIN</td><td valign="top">:</td><td><div>[no address given]</div></td></tr><tr><td style="font-weight:bold;vertical-align:top">SERVER_NAME</td><td valign="top">:</td><td><div>web2py.localdomain</div></td></tr><tr><td style="font-weight:bold;vertical-align:top">SERVER_PORT</td><td valign="top">:</td><td><div>443</div></td></tr><tr><td style="font-weight:bold;vertical-align:top">SERVER_PROTOCOL</td><td valign="top">:</td><td><div>HTTP/1.1</div></td></tr><tr><td style="font-weight:bold;vertical-align:top">SERVER_SIGNATURE</td><td valign="top">:</td><td><div>&lt;address&gt;Apache/2.2.22 (Ubuntu) Server at web2py.localdomain Port 443&lt;/address&gt;\n</div></td></tr><tr><td style="font-weight:bold;vertical-align:top">SERVER_SOFTWARE</td><td valign="top">:</td><td><div>Apache/2.2.22 (Ubuntu)</div></td></tr><tr><td style="font-weight:bold;vertical-align:top">SSL_TLS_SNI</td><td valign="top">:</td><td><div>web2py.localdomain</div></td></tr><tr><td style="font-weight:bold;vertical-align:top">mod_wsgi.application_group</td><td valign="top">:</td><td><div>web2py.localdomain|</div></td></tr><tr><td style="font-weight:bold;vertical-align:top">mod_wsgi.callable_object</td><td valign="top">:</td><td><div>application</div></td></tr><tr><td style="font-weight:bold;vertical-align:top">mod_wsgi.enable_sendfile</td><td valign="top">:</td><td><div>0</div></td></tr><tr><td style="font-weight:bold;vertical-align:top">mod_wsgi.handler_script</td><td valign="top">:</td><td><div></div></td></tr><tr><td style="font-weight:bold;vertical-align:top">mod_wsgi.input_chunked</td><td valign="top">:</td><td><div>0</div></td></tr><tr><td style="font-weight:bold;vertical-align:top">mod_wsgi.listener_host</td><td valign="top">:</td><td><div>127.0.0.12</div></td></tr><tr><td style="font-weight:bold;vertical-align:top">mod_wsgi.listener_port</td><td valign="top">:</td><td><div>443</div></td></tr><tr><td style="font-weight:bold;vertical-align:top">mod_wsgi.process_group</td><td valign="top">:</td><td><div>web2py</div></td></tr><tr><td style="font-weight:bold;vertical-align:top">mod_wsgi.queue_start</td><td valign="top">:</td><td><div>1366363766704685</div></td></tr><tr><td style="font-weight:bold;vertical-align:top">mod_wsgi.request_handler</td><td valign="top">:</td><td><div>wsgi-script</div></td></tr><tr><td style="font-weight:bold;vertical-align:top">mod_wsgi.script_reloading</td><td valign="top">:</td><td><div>1</div></td></tr><tr><td style="font-weight:bold;vertical-align:top">mod_wsgi.version</td><td valign="top">:</td><td><div><table><tr><td><div>3</div></td></tr><tr><td><div>4</div></td></tr></table></div></td></tr><tr><td style="font-weight:bold;vertical-align:top">wsgi.errors</td><td valign="top">:</td><td><div>&lt;mod_wsgi.Log object at 0xa7761980&gt;</div></td></tr><tr><td style="font-weight:bold;vertical-align:top">wsgi.file_wrapper</td><td valign="top">:</td><td><div>&lt;built-in method file_wrapper of mod_wsgi.Adapter object at 0xb8c47140&gt;</div></td></tr><tr><td style="font-weight:bold;vertical-align:top">wsgi.input</td><td valign="top">:</td><td><div>&lt;cStringIO.StringO object at 0xa7867b80&gt;</div></td></tr><tr><td style="font-weight:bold;vertical-align:top">wsgi.multiprocess</td><td valign="top">:</td><td><div>False</div></td></tr><tr><td style="font-weight:bold;vertical-align:top">wsgi.multithread</td><td valign="top">:</td><td><div>True</div></td></tr><tr><td style="font-weight:bold;vertical-align:top">wsgi.run_once</td><td valign="top">:</td><td><div>False</div></td></tr><tr><td style="font-weight:bold;vertical-align:top">wsgi.url_scheme</td><td valign="top">:</td><td><div>https</div></td></tr><tr><td style="font-weight:bold;vertical-align:top">wsgi.version</td><td valign="top">:</td><td><div>1</div></td></tr></table></div></td></tr></table></div></td></tr></table></div>'
tRp65
sS'frames'
p66
(lp67
(dp68
S'file'
p69
S'/var/www/web2py/gluon/restricted.py'
p70
sS'dump'
p71
(dp72
S'environment'
p73
S"{'A': <class 'gluon.html.A'>, 'ANY_OF': <class 'gluon.validators.ANY_OF'>, 'Auth': <class 'gluon.tools.Auth'>, 'B': <class 'gluon.html.B'>, 'BEAUTIFY': <class 'gluon.html.BEAUTIFY'>, 'BODY': <class 'gluon.html.BODY'>, 'BR': <class 'gluon.html.BR'>, 'BUTTON': <class 'gluon.html.BUTTON'>, 'CAT': <class 'gluon.html.CAT'>, 'CENTER': <class 'gluon.html.CENTER'>, ...}"
p74
sS'ccode'
p75
S'<code object <module> at 0xa792f650, file "/var/...applications/moviedb/views/generic.html", line 1>'
p76
ssS'lnum'
p77
I212
sS'lines'
p78
(dp79
I207
S'    try:'
p80
sI208
S'        if isinstance(code, types.CodeType):'
p81
sI209
S'            ccode = code'
p82
sI210
S'        else:'
p83
sI211
S'            ccode = compile2(code, layer)'
p84
sI212
S'        exec ccode in environment'
p85
sI213
S'    except HTTP:'
p86
sI214
S'        raise'
p87
sI215
S'    except RestrictedError:'
p88
sI216
S'        # do not encapsulate (obfuscate) the original RestrictedError'
p89
ssS'call'
p90
S'(code=\'response.write(\\\'<!DOCTYPE html>\\\\n<!-- paulirish....(\\\'"></script>\\\\n</body>\\\\n</html>\\\\n\\\', escape=False)\', environment={\'A\': <class \'gluon.html.A\'>, \'ANY_OF\': <class \'gluon.validators.ANY_OF\'>, \'Auth\': <class \'gluon.tools.Auth\'>, \'B\': <class \'gluon.html.B\'>, \'BEAUTIFY\': <class \'gluon.html.BEAUTIFY\'>, \'BODY\': <class \'gluon.html.BODY\'>, \'BR\': <class \'gluon.html.BR\'>, \'BUTTON\': <class \'gluon.html.BUTTON\'>, \'CAT\': <class \'gluon.html.CAT\'>, \'CENTER\': <class \'gluon.html.CENTER\'>, ...}, layer=\'/var/www/web2py/applications/moviedb/views/generic.html\')'
p91
sS'func'
p92
S'restricted'
p93
sa(dp94
g69
S'/var/www/web2py/applications/moviedb/views/generic.html'
p95
sg71
(dp96
sg77
I92
sg78
(dp97
I96
S'if request.is_local:'
p98
sI97
S"    response.write('\\n', escape=False)"
p99
sI98
S'    response.write(response.toolbar())'
p100
sI99
S"    response.write('\\n', escape=False)"
p101
sI100
S'    pass'
p102
sI101
S"response.write('\\n', escape=False)"
p103
sI102
S"response.write('\\n            ', escape=False)"
p104
sI83
S"response.write('\\n<h2>', escape=False)"
p105
sI84
S"response.write(' '.join(x.capitalize() for x in request.function.split('_')))"
p106
sI85
S"response.write('</h2>\\n', escape=False)"
p107
sI86
S'if len(response._vars)==1:'
p108
sI87
S"    response.write('\\n', escape=False)"
p109
sI88
S'    response.write(BEAUTIFY(response._vars.values()[0]))'
p110
sI89
S"    response.write('\\n', escape=False)"
p111
sI90
S'elif len(response._vars)>1:'
p112
sI91
S"    response.write('\\n', escape=False)"
p113
sI92
S'    response.write(BEAUTIFY(response._vars))'
p114
sI93
S"    response.write('\\n', escape=False)"
p115
sI94
S'    pass'
p116
sI95
S"response.write('\\n', escape=False)"
p117
ssg90
S'()'
p118
sg92
S'<module>'
p119
sa(dp120
g69
S'/var/www/web2py/gluon/globals.py'
p121
sg71
(dp122
S'self.body.write'
p123
S'<built-in method write of cStringIO.StringO object>'
p124
sS'self.body'
p125
S'<cStringIO.StringO object>'
p126
sS'self'
p127
S"<Storage {'body': <cStringIO.StringO object at 0...> at 0xa78782cc>, 'view': 'default/xmlurl.html'}>"
p128
sS'global xmlescape'
p129
S'<function xmlescape>'
p130
sS'data'
p131
S'<gluon.html.BEAUTIFY object>'
p132
ssg77
I203
sg78
(dp133
I198
S''
sI199
S'    def write(self, data, escape=True):'
p134
sI200
S'        if not escape:'
p135
sI201
S'            self.body.write(str(data))'
p136
sI202
S'        else:'
p137
sI203
S'            self.body.write(xmlescape(data))'
p138
sI204
S''
sI205
S'    def render(self, *a, **b):'
p139
sI206
S'        from compileapp import run_view_in'
p140
sI207
S'        if len(a) > 2:'
p141
ssg90
S"(self=<Storage {'body': <cStringIO.StringO object at 0...> at 0xa78782cc>, 'view': 'default/xmlurl.html'}>, data=<gluon.html.BEAUTIFY object>, escape=True)"
p142
sg92
S'write'
p143
sa(dp144
g69
S'/var/www/web2py/gluon/html.py'
p145
sg71
(dp146
S'data'
p147
S'<gluon.html.BEAUTIFY object>'
p148
sS'data.xml'
p149
S'<bound method BEAUTIFY.xml of <gluon.html.BEAUTIFY object>>'
p150
ssg77
I120
sg78
(dp151
I115
S'    :param quote: optional (default False)'
p152
sI116
S'    """'
p153
sI117
S''
sI118
S'    # first try the xml function'
p154
sI119
S"    if hasattr(data, 'xml') and callable(data.xml):"
p155
sI120
S'        return data.xml()'
p156
sI121
S''
sI122
S'    # otherwise, make it a string'
p157
sI123
S'    if not isinstance(data, (str, unicode)):'
p158
sI124
S'        data = str(data)'
p159
ssg90
S'(data=<gluon.html.BEAUTIFY object>, quote=True)'
p160
sg92
S'xmlescape'
p161
sa(dp162
g69
S'/var/www/web2py/gluon/html.py'
p163
sg71
(dp164
S'fa'
p165
S'undefined'
p166
sS'self'
p167
S'<gluon.html.BEAUTIFY object>'
p168
sS'co'
p169
g166
sS'self._xml'
p170
S'<bound method BEAUTIFY._xml of <gluon.html.BEAUTIFY object>>'
p171
ssg77
I919
sg78
(dp172
I914
S'    def xml(self):'
p173
sI915
S'        """'
p174
sI916
S'        generates the xml for this component.'
p175
sI917
S'        """'
p176
sI918
S''
sI919
S'        (fa, co) = self._xml()'
p177
sI920
S''
sI921
S'        if not self.tag:'
p178
sI922
S'            return co'
p179
sI923
S''
ssg90
S'(self=<gluon.html.BEAUTIFY object>)'
p180
sg92
S'xml'
p181
sa(dp182
g69
S'/var/www/web2py/gluon/html.py'
p183
sg71
(dp184
S'self'
p185
S'<gluon.html.BEAUTIFY object>'
p186
sS'self.components'
p187
S'[<gluon.html.TABLE object>]'
p188
ssg77
I910
sg78
(dp189
I905
S"        fa = ''"
p190
sI906
S'        for name,value in attr:'
p191
sI907
S'            fa += \' %s="%s"\' % (name, xmlescape(value, True))'
p192
sI908
S'        # get the xml for the inner components'
p193
sI909
S'        co = join([xmlescape(component) for component in'
p194
sI910
S'                   self.components])'
p195
sI911
S''
sI912
S'        return (fa, co)'
p196
sI913
S''
sI914
S'    def xml(self):'
p197
ssg90
S'(self=<gluon.html.BEAUTIFY object>)'
p198
sg92
S'_xml'
p199
sa(dp200
g69
S'/var/www/web2py/gluon/html.py'
p201
sg71
(dp202
S'data'
p203
S'<gluon.html.TABLE object>'
p204
sS'data.xml'
p205
S'<bound method TABLE.xml of <gluon.html.TABLE object>>'
p206
ssg77
I120
sg78
(dp207
I115
S'    :param quote: optional (default False)'
p208
sI116
S'    """'
p209
sI117
S''
sI118
S'    # first try the xml function'
p210
sI119
S"    if hasattr(data, 'xml') and callable(data.xml):"
p211
sI120
S'        return data.xml()'
p212
sI121
S''
sI122
S'    # otherwise, make it a string'
p213
sI123
S'    if not isinstance(data, (str, unicode)):'
p214
sI124
S'        data = str(data)'
p215
ssg90
S'(data=<gluon.html.TABLE object>, quote=True)'
p216
sg92
g161
sa(dp217
g69
S'/var/www/web2py/gluon/html.py'
p218
sg71
(dp219
S'fa'
p220
g166
sS'self'
p221
S'<gluon.html.TABLE object>'
p222
sS'co'
p223
g166
sS'self._xml'
p224
S'<bound method TABLE._xml of <gluon.html.TABLE object>>'
p225
ssg77
I919
sg78
(dp226
I914
S'    def xml(self):'
p227
sI915
S'        """'
p228
sI916
S'        generates the xml for this component.'
p229
sI917
S'        """'
p230
sI918
S''
sI919
S'        (fa, co) = self._xml()'
p231
sI920
S''
sI921
S'        if not self.tag:'
p232
sI922
S'            return co'
p233
sI923
S''
ssg90
S'(self=<gluon.html.TABLE object>)'
p234
sg92
g181
sa(dp235
g69
S'/var/www/web2py/gluon/html.py'
p236
sg71
(dp237
S'self'
p238
S'<gluon.html.TABLE object>'
p239
sS'self.components'
p240
S'[<gluon.html.TR object>, <gluon.html.TR object>]'
p241
ssg77
I910
sg78
(dp242
I905
S"        fa = ''"
p243
sI906
S'        for name,value in attr:'
p244
sI907
S'            fa += \' %s="%s"\' % (name, xmlescape(value, True))'
p245
sI908
S'        # get the xml for the inner components'
p246
sI909
S'        co = join([xmlescape(component) for component in'
p247
sI910
S'                   self.components])'
p248
sI911
S''
sI912
S'        return (fa, co)'
p249
sI913
S''
sI914
S'    def xml(self):'
p250
ssg90
S'(self=<gluon.html.TABLE object>)'
p251
sg92
g199
sa(dp252
g69
S'/var/www/web2py/gluon/html.py'
p253
sg71
(dp254
S'data'
p255
S'<gluon.html.TR object>'
p256
sS'data.xml'
p257
S'<bound method TR.xml of <gluon.html.TR object>>'
p258
ssg77
I120
sg78
(dp259
I115
S'    :param quote: optional (default False)'
p260
sI116
S'    """'
p261
sI117
S''
sI118
S'    # first try the xml function'
p262
sI119
S"    if hasattr(data, 'xml') and callable(data.xml):"
p263
sI120
S'        return data.xml()'
p264
sI121
S''
sI122
S'    # otherwise, make it a string'
p265
sI123
S'    if not isinstance(data, (str, unicode)):'
p266
sI124
S'        data = str(data)'
p267
ssg90
S'(data=<gluon.html.TR object>, quote=True)'
p268
sg92
g161
sa(dp269
g69
S'/var/www/web2py/gluon/html.py'
p270
sg71
(dp271
S'fa'
p272
g166
sS'self'
p273
S'<gluon.html.TR object>'
p274
sS'co'
p275
g166
sS'self._xml'
p276
S'<bound method TR._xml of <gluon.html.TR object>>'
p277
ssg77
I919
sg78
(dp278
I914
S'    def xml(self):'
p279
sI915
S'        """'
p280
sI916
S'        generates the xml for this component.'
p281
sI917
S'        """'
p282
sI918
S''
sI919
S'        (fa, co) = self._xml()'
p283
sI920
S''
sI921
S'        if not self.tag:'
p284
sI922
S'            return co'
p285
sI923
S''
ssg90
S'(self=<gluon.html.TR object>)'
p286
sg92
g181
sa(dp287
g69
S'/var/www/web2py/gluon/html.py'
p288
sg71
(dp289
S'self'
p290
S'<gluon.html.TR object>'
p291
sS'self.components'
p292
S'[<gluon.html.TD object>, <gluon.html.TD object>, <gluon.html.TD object>]'
p293
ssg77
I910
sg78
(dp294
I905
S"        fa = ''"
p295
sI906
S'        for name,value in attr:'
p296
sI907
S'            fa += \' %s="%s"\' % (name, xmlescape(value, True))'
p297
sI908
S'        # get the xml for the inner components'
p298
sI909
S'        co = join([xmlescape(component) for component in'
p299
sI910
S'                   self.components])'
p300
sI911
S''
sI912
S'        return (fa, co)'
p301
sI913
S''
sI914
S'    def xml(self):'
p302
ssg90
S'(self=<gluon.html.TR object>)'
p303
sg92
g199
sa(dp304
g69
S'/var/www/web2py/gluon/html.py'
p305
sg71
(dp306
S'data'
p307
S'<gluon.html.TD object>'
p308
sS'data.xml'
p309
S'<bound method TD.xml of <gluon.html.TD object>>'
p310
ssg77
I120
sg78
(dp311
I115
S'    :param quote: optional (default False)'
p312
sI116
S'    """'
p313
sI117
S''
sI118
S'    # first try the xml function'
p314
sI119
S"    if hasattr(data, 'xml') and callable(data.xml):"
p315
sI120
S'        return data.xml()'
p316
sI121
S''
sI122
S'    # otherwise, make it a string'
p317
sI123
S'    if not isinstance(data, (str, unicode)):'
p318
sI124
S'        data = str(data)'
p319
ssg90
S'(data=<gluon.html.TD object>, quote=True)'
p320
sg92
g161
sa(dp321
g69
S'/var/www/web2py/gluon/html.py'
p322
sg71
(dp323
S'fa'
p324
g166
sS'self'
p325
S'<gluon.html.TD object>'
p326
sS'co'
p327
g166
sS'self._xml'
p328
S'<bound method TD._xml of <gluon.html.TD object>>'
p329
ssg77
I919
sg78
(dp330
I914
S'    def xml(self):'
p331
sI915
S'        """'
p332
sI916
S'        generates the xml for this component.'
p333
sI917
S'        """'
p334
sI918
S''
sI919
S'        (fa, co) = self._xml()'
p335
sI920
S''
sI921
S'        if not self.tag:'
p336
sI922
S'            return co'
p337
sI923
S''
ssg90
S'(self=<gluon.html.TD object>)'
p338
sg92
g181
sa(dp339
g69
S'/var/www/web2py/gluon/html.py'
p340
sg71
(dp341
S'self'
p342
S'<gluon.html.TD object>'
p343
sS'self.components'
p344
S'[<gluon.html.BEAUTIFY object>]'
p345
ssg77
I910
sg78
(dp346
I905
S"        fa = ''"
p347
sI906
S'        for name,value in attr:'
p348
sI907
S'            fa += \' %s="%s"\' % (name, xmlescape(value, True))'
p349
sI908
S'        # get the xml for the inner components'
p350
sI909
S'        co = join([xmlescape(component) for component in'
p351
sI910
S'                   self.components])'
p352
sI911
S''
sI912
S'        return (fa, co)'
p353
sI913
S''
sI914
S'    def xml(self):'
p354
ssg90
S'(self=<gluon.html.TD object>)'
p355
sg92
g199
sa(dp356
g69
S'/var/www/web2py/gluon/html.py'
p357
sg71
(dp358
S'data'
p359
S'<gluon.html.BEAUTIFY object>'
p360
sS'data.xml'
p361
S'<bound method BEAUTIFY.xml of <gluon.html.BEAUTIFY object>>'
p362
ssg77
I120
sg78
(dp363
I115
S'    :param quote: optional (default False)'
p364
sI116
S'    """'
p365
sI117
S''
sI118
S'    # first try the xml function'
p366
sI119
S"    if hasattr(data, 'xml') and callable(data.xml):"
p367
sI120
S'        return data.xml()'
p368
sI121
S''
sI122
S'    # otherwise, make it a string'
p369
sI123
S'    if not isinstance(data, (str, unicode)):'
p370
sI124
S'        data = str(data)'
p371
ssg90
S'(data=<gluon.html.BEAUTIFY object>, quote=True)'
p372
sg92
g161
sa(dp373
g69
S'/var/www/web2py/gluon/html.py'
p374
sg71
(dp375
S'fa'
p376
g166
sS'self'
p377
S'<gluon.html.BEAUTIFY object>'
p378
sS'co'
p379
g166
sS'self._xml'
p380
S'<bound method BEAUTIFY._xml of <gluon.html.BEAUTIFY object>>'
p381
ssg77
I919
sg78
(dp382
I914
S'    def xml(self):'
p383
sI915
S'        """'
p384
sI916
S'        generates the xml for this component.'
p385
sI917
S'        """'
p386
sI918
S''
sI919
S'        (fa, co) = self._xml()'
p387
sI920
S''
sI921
S'        if not self.tag:'
p388
sI922
S'            return co'
p389
sI923
S''
ssg90
S'(self=<gluon.html.BEAUTIFY object>)'
p390
sg92
g181
sa(dp391
g69
S'/var/www/web2py/gluon/html.py'
p392
sg71
(dp393
S'self'
p394
S'<gluon.html.BEAUTIFY object>'
p395
sS'self.components'
p396
S'[<ServerProxy for web2py.localdomain/moviedb/tmdb/call/xmlrpc>]'
p397
ssg77
I910
sg78
(dp398
I905
S"        fa = ''"
p399
sI906
S'        for name,value in attr:'
p400
sI907
S'            fa += \' %s="%s"\' % (name, xmlescape(value, True))'
p401
sI908
S'        # get the xml for the inner components'
p402
sI909
S'        co = join([xmlescape(component) for component in'
p403
sI910
S'                   self.components])'
p404
sI911
S''
sI912
S'        return (fa, co)'
p405
sI913
S''
sI914
S'    def xml(self):'
p406
ssg90
S'(self=<gluon.html.BEAUTIFY object>)'
p407
sg92
g199
sa(dp408
g69
S'/var/www/web2py/gluon/html.py'
p409
sg71
(dp410
S'data'
p411
S'<ServerProxy for web2py.localdomain/moviedb/tmdb/call/xmlrpc>'
p412
sS'data.xml'
p413
S'<_Method instance>'
p414
ssg77
I120
sg78
(dp415
I115
S'    :param quote: optional (default False)'
p416
sI116
S'    """'
p417
sI117
S''
sI118
S'    # first try the xml function'
p418
sI119
S"    if hasattr(data, 'xml') and callable(data.xml):"
p419
sI120
S'        return data.xml()'
p420
sI121
S''
sI122
S'    # otherwise, make it a string'
p421
sI123
S'    if not isinstance(data, (str, unicode)):'
p422
sI124
S'        data = str(data)'
p423
ssg90
S'(data=<ServerProxy for web2py.localdomain/moviedb/tmdb/call/xmlrpc>, quote=True)'
p424
sg92
g161
sa(dp425
g69
S'/usr/lib/python2.7/xmlrpclib.py'
p426
sg71
(dp427
S'self.__name'
p428
S'<_Method instance>'
p429
sS'self'
p430
S'<_Method instance>'
p431
sS'self.__send'
p432
S'<_Method instance>'
p433
sS'args'
p434
S'()'
p435
ssg77
I1224
sg78
(dp436
I1219
S'        self.__send = send'
p437
sI1220
S'        self.__name = name'
p438
sI1221
S'    def __getattr__(self, name):'
p439
sI1222
S'        return _Method(self.__send, "%s.%s" % (self.__name, name))'
p440
sI1223
S'    def __call__(self, *args):'
p441
sI1224
S'        return self.__send(self.__name, args)'
p442
sI1225
S''
sI1226
S'##'
p443
sI1227
S'# Standard transport class for XML-RPC over HTTP.'
p444
sI1228
S'# <p>'
p445
ssg90
S'(self=<_Method instance>, *args=())'
p446
sg92
S'__call__'
p447
sa(dp448
g69
S'/usr/lib/python2.7/xmlrpclib.py'
p449
sg71
(dp450
S'self'
p451
S'<ServerProxy for web2py.localdomain/moviedb/tmdb/call/xmlrpc>'
p452
sS'verbose'
p453
g166
sS'self.__verbose'
p454
S'<_Method instance>'
p455
ssg77
I1578
sg78
(dp456
I1573
S''
sI1574
S'        response = self.__transport.request('
p457
sI1575
S'            self.__host,'
p458
sI1576
S'            self.__handler,'
p459
sI1577
S'            request,'
p460
sI1578
S'            verbose=self.__verbose'
p461
sI1579
S'            )'
p462
sI1580
S''
sI1581
S'        if len(response) == 1:'
p463
sI1582
S'            response = response[0]'
p464
ssg90
S"(self=<ServerProxy for web2py.localdomain/moviedb/tmdb/call/xmlrpc>, methodname='xml', params=())"
p465
sg92
S'__request'
p466
sa(dp467
g69
S'/usr/lib/python2.7/xmlrpclib.py'
p468
sg71
(dp469
S'self.single_request'
p470
S'<bound method Transport.single_request of <xmlrpclib.Transport instance>>'
p471
sS'request_body'
p472
S'"<?xml version=\'1.0\'?>\\n<methodCall>\\n<methodName>xml</methodName>\\n<params>\\n</params>\\n</methodCall>\\n"'
p473
sS'self'
p474
S'<xmlrpclib.Transport instance>'
p475
sS'host'
p476
S"'web2py.localdomain'"
p477
sS'handler'
p478
S"'/moviedb/tmdb/call/xmlrpc'"
p479
sS'verbose'
p480
S'0'
ssg77
I1264
sg78
(dp481
I1259
S''
sI1260
S'    def request(self, host, handler, request_body, verbose=0):'
p482
sI1261
S'        #retry request once if cached connection has gone cold'
p483
sI1262
S'        for i in (0, 1):'
p484
sI1263
S'            try:'
p485
sI1264
S'                return self.single_request(host, handler, request_body, verbose)'
p486
sI1265
S'            except socket.error, e:'
p487
sI1266
S'                if i or e.errno not in (errno.ECONNRESET, errno.ECONNABORTED, errno.EPIPE):'
p488
sI1267
S'                    raise'
p489
sI1268
S'            except httplib.BadStatusLine: #close after we sent request'
p490
ssg90
S'(self=<xmlrpclib.Transport instance>, host=\'web2py.localdomain\', handler=\'/moviedb/tmdb/call/xmlrpc\', request_body="<?xml version=\'1.0\'?>\\n<methodCall>\\n<methodName>xml</methodName>\\n<params>\\n</params>\\n</methodCall>\\n", verbose=0)'
p491
sg92
g63
sa(dp492
g69
S'/usr/lib/python2.7/xmlrpclib.py'
p493
sg71
(dp494
S'self'
p495
S'<xmlrpclib.Transport instance>'
p496
sS'self.parse_response'
p497
S'<bound method Transport.parse_response of <xmlrpclib.Transport instance>>'
p498
sS'response'
p499
S'<httplib.HTTPResponse instance>'
p500
ssg77
I1297
sg78
(dp501
I1292
S'            self.send_content(h, request_body)'
p502
sI1293
S''
sI1294
S'            response = h.getresponse(buffering=True)'
p503
sI1295
S'            if response.status == 200:'
p504
sI1296
S'                self.verbose = verbose'
p505
sI1297
S'                return self.parse_response(response)'
p506
sI1298
S'        except Fault:'
p507
sI1299
S'            raise'
p508
sI1300
S'        except Exception:'
p509
sI1301
S'            # All unexpected errors leave connection in'
p510
ssg90
S'(self=<xmlrpclib.Transport instance>, host=\'web2py.localdomain\', handler=\'/moviedb/tmdb/call/xmlrpc\', request_body="<?xml version=\'1.0\'?>\\n<methodCall>\\n<methodName>xml</methodName>\\n<params>\\n</params>\\n</methodCall>\\n", verbose=0)'
p511
sg92
S'single_request'
p512
sa(dp513
g69
S'/usr/lib/python2.7/xmlrpclib.py'
p514
sg71
(dp515
S'u.close'
p516
S'<bound method Unmarshaller.close of <xmlrpclib.Unmarshaller instance>>'
p517
sS'u'
S'<xmlrpclib.Unmarshaller instance>'
p518
ssg77
I1473
sg78
(dp519
I1472
S''
sI1473
S'        return u.close()'
p520
sI1474
S''
sI1475
S'##'
p521
sI1476
S'# Standard transport class for XML-RPC over HTTPS.'
p522
sI1477
S''
sI1468
S''
sI1469
S'        if stream is not response:'
p523
sI1470
S'            stream.close()'
p524
sI1471
S'        p.close()'
p525
ssg90
S'(self=<xmlrpclib.Transport instance>, response=<httplib.HTTPResponse instance>)'
p526
sg92
S'parse_response'
p527
sa(dp528
g69
S'/usr/lib/python2.7/xmlrpclib.py'
p529
sg71
(dp530
S'global Fault'
p531
S"<class 'xmlrpclib.Fault'>"
p532
sS'self'
p533
S'<xmlrpclib.Unmarshaller instance>'
p534
sS'self._stack'
p535
S'[{\'faultCode\': 1, \'faultString\': \'<type \\\'exceptions.Exception\\\'>:method "xml" is not supported\'}]'
p536
ssg77
I793
sg78
(dp537
I788
S'    def close(self):'
p538
sI789
S'        # return response tuple and target method'
p539
sI790
S'        if self._type is None or self._marks:'
p540
sI791
S'            raise ResponseError()'
p541
sI792
S'        if self._type == "fault":'
p542
sI793
S'            raise Fault(**self._stack[0])'
p543
sI794
S'        return tuple(self._stack)'
p544
sI795
S''
sI796
S'    def getmethodname(self):'
p545
sI797
S'        return self._methodname'
p546
ssg90
S'(self=<xmlrpclib.Unmarshaller instance>)'
p547
sg92
S'close'
p548
sasS'pyver'
p549
S'Python 2.7.3: /usr/bin/python (prefix: /usr)'
p550
sS'session'
p551
g64
(S's\x1a\x00\x00\x00<div><table></table></div>'
tRp552
sS'etype'
p553
S"<class 'xmlrpclib.Fault'>"
p554
sS'date'
p555
S'Fri Apr 19 11:29:27 2013'
p556
sS'response'
p557
g64
(S's\xaf-\x00\x00<div><table><tr><td style="font-weight:bold;vertical-align:top">body</td><td valign="top">:</td><td><div>&lt;cStringIO.StringO object at 0xa7a4ab00&gt;</div></td></tr><tr><td style="font-weight:bold;vertical-align:top">cookies</td><td valign="top">:</td><td><div><table><tr><td style="font-weight:bold;vertical-align:top">session_id_moviedb</td><td valign="top">:</td><td><div>127.0.0.1-4bfa9bed-e627-4956-9770-9f8dda731536<table><tr><td style="font-weight:bold;vertical-align:top">comment</td><td valign="top">:</td><td><div></div></td></tr><tr><td style="font-weight:bold;vertical-align:top">domain</td><td valign="top">:</td><td><div></div></td></tr><tr><td style="font-weight:bold;vertical-align:top">expires</td><td valign="top">:</td><td><div></div></td></tr><tr><td style="font-weight:bold;vertical-align:top">httponly</td><td valign="top">:</td><td><div></div></td></tr><tr><td style="font-weight:bold;vertical-align:top">max-age</td><td valign="top">:</td><td><div></div></td></tr><tr><td style="font-weight:bold;vertical-align:top">path</td><td valign="top">:</td><td><div>/</div></td></tr><tr><td style="font-weight:bold;vertical-align:top">secure</td><td valign="top">:</td><td><div></div></td></tr><tr><td style="font-weight:bold;vertical-align:top">version</td><td valign="top">:</td><td><div></div></td></tr></table></div></td></tr></table></div></td></tr><tr><td style="font-weight:bold;vertical-align:top">delimiters</td><td valign="top">:</td><td><div><table><tr><td><div>{{</div></td></tr><tr><td><div>}}</div></td></tr></table></div></td></tr><tr><td style="font-weight:bold;vertical-align:top">files</td><td valign="top">:</td><td><div><table><tr><td><div>/moviedb/static/js/jquery.js</div></td></tr><tr><td><div>/moviedb/static/css/calendar.css</div></td></tr><tr><td><div>/moviedb/static/js/calendar.js</div></td></tr><tr><td><div>/moviedb/static/js/web2py.js</div></td></tr><tr><td><div>/moviedb/static/css/web2py.css</div></td></tr><tr><td><div>/moviedb/static/css/bootstrap.min.css</div></td></tr><tr><td><div>/moviedb/static/css/bootstrap-responsive.min.css</div></td></tr><tr><td><div>/moviedb/static/css/web2py_bootstrap.css</div></td></tr><tr><td><div>/moviedb/static/css/moviedb.css</div></td></tr></table></div></td></tr><tr><td style="font-weight:bold;vertical-align:top">flash</td><td valign="top">:</td><td><div></div></td></tr><tr><td style="font-weight:bold;vertical-align:top">generic_patterns</td><td valign="top">:</td><td><div><table><tr><td><div>*</div></td></tr></table></div></td></tr><tr><td style="font-weight:bold;vertical-align:top">google_analytics_id</td><td valign="top">:</td><td><div>None</div></td></tr><tr><td style="font-weight:bold;vertical-align:top">headers</td><td valign="top">:</td><td><div><table><tr><td style="font-weight:bold;vertical-align:top">X-Powered-By</td><td valign="top">:</td><td><div>web2py</div></td></tr></table></div></td></tr><tr><td style="font-weight:bold;vertical-align:top">logo</td><td valign="top">:</td><td><div><a class="brand" href="http://www.web2py.com/"><b>web<span>2</span>py</b>&trade;&nbsp;</a></div></td></tr><tr><td style="font-weight:bold;vertical-align:top">menu</td><td valign="top">:</td><td><div><table><tr><td><div><table><tr><td><div>Home</div></td></tr><tr><td><div>False</div></td></tr><tr><td><div>/moviedb/default/index</div></td></tr><tr><td><div><table></table></div></td></tr></table></div></td></tr><tr><td><div><table><tr><td><div><span class="highlighted">web2py</span></div></td></tr><tr><td><div>False</div></td></tr><tr><td><div>http://web2py.com</div></td></tr><tr><td><div><table><tr><td><div><table><tr><td><div>My Sites</div></td></tr><tr><td><div>False</div></td></tr><tr><td><div>/admin/default/site</div></td></tr></table></div></td></tr><tr><td><div><table><tr><td><div>This App</div></td></tr><tr><td><div>False</div></td></tr><tr><td><div>/admin/default/design/moviedb</div></td></tr><tr><td><div>[(&lt;lazyT &#x27;Controller&#x27;&gt;, False, &#x27;/admin/default/edit/moviedb/controllers/default.py&#x27;), (&lt;lazyT &#x27;View&#x27;&gt;, False, &#x27;/admin/default/edit/moviedb/views/default/xmlurl.html&#x27;), (&lt;lazyT &#x27;Layout&#x27;&gt;, False, &#x27;/admin/default/edit/moviedb/views/layout.html&#x27;), (&lt;lazyT &#x27;Stylesheet&#x27;&gt;, False, &#x27;/admin/default/edit/moviedb/static/css/web2py.css&#x27;), (&lt;lazyT &#x27;DB Model&#x27;&gt;, False, &#x27;/admin/default/edit/moviedb/models/db.py&#x27;), (&lt;lazyT &#x27;Menu Model&#x27;&gt;, False, &#x27;/admin/default/edit/moviedb/models/menu.py&#x27;), (&lt;lazyT &#x27;Database&#x27;&gt;, False, &#x27;/moviedb/appadmin/index&#x27;), (&lt;lazyT &#x27;Errors&#x27;&gt;, False, &#x27;/admin/default/errors/moviedb&#x27;), (&lt;lazyT &#x27;About&#x27;&gt;, False, &#x27;/admin/default/about/moviedb&#x27;)]</div></td></tr></table></div></td></tr><tr><td><div><table><tr><td><div>web2py.com</div></td></tr><tr><td><div>False</div></td></tr><tr><td><div>http://www.web2py.com</div></td></tr><tr><td><div>[(&lt;lazyT &#x27;Download&#x27;&gt;, False, &#x27;http://www.web2py.com/examples/default/download&#x27;), (&lt;lazyT &#x27;Support&#x27;&gt;, False, &#x27;http://www.web2py.com/examples/default/support&#x27;), (&lt;lazyT &#x27;Demo&#x27;&gt;, False, &#x27;http://web2py.com/demo_admin&#x27;), (&lt;lazyT &#x27;Quick Examples&#x27;&gt;, False, &#x27;http://web2py.com/examples/default/examples&#x27;), (&lt;lazyT &#x27;FAQ&#x27;&gt;, False, &#x27;http://web2py.com/AlterEgo&#x27;), (&lt;lazyT &#x27;Videos&#x27;&gt;, False, &#x27;http://www.web2py.com/examples/default/videos/&#x27;), (&lt;lazyT &#x27;Free Applications&#x27;&gt;, False, &#x27;http://web2py.com/appliances&#x27;), (&lt;lazyT &#x27;Plugins&#x27;&gt;, False, &#x27;http://web2py.com/plugins&#x27;), (&lt;lazyT &#x27;Layouts&#x27;&gt;, False, &#x27;http://web2py.com/layouts&#x27;), (&lt;lazyT &#x27;Recipes&#x27;&gt;, False, &#x27;http://web2pyslices.com/&#x27;), (&lt;lazyT &#x27;Semantic&#x27;&gt;, False, &#x27;http://web2py.com/semantic&#x27;)]</div></td></tr></table></div></td></tr><tr><td><div><table><tr><td><div>Documentazione</div></td></tr><tr><td><div>False</div></td></tr><tr><td><div>http://www.web2py.com/book</div></td></tr><tr><td><div>[(&lt;lazyT &#x27;Preface&#x27;&gt;, False, &#x27;http://www.web2py.com/book/default/chapter/00&#x27;), (&lt;lazyT &#x27;Introduction&#x27;&gt;, False, &#x27;http://www.web2py.com/book/default/chapter/01&#x27;), (&lt;lazyT &#x27;Python&#x27;&gt;, False, &#x27;http://www.web2py.com/book/default/chapter/02&#x27;), (&lt;lazyT &#x27;Overview&#x27;&gt;, False, &#x27;http://www.web2py.com/book/default/chapter/03&#x27;), (&lt;lazyT &#x27;The Core&#x27;&gt;, False, &#x27;http://www.web2py.com/book/default/chapter/04&#x27;), (&lt;lazyT &#x27;The Views&#x27;&gt;, False, &#x27;http://www.web2py.com/book/default/chapter/05&#x27;), (&lt;lazyT &#x27;Database&#x27;&gt;, False, &#x27;http://www.web2py.com/book/default/chapter/06&#x27;), (&lt;lazyT &#x27;Forms and Validators&#x27;&gt;, False, &#x27;http://www.web2py.com/book/default/chapter/07&#x27;), (&lt;lazyT &#x27;Email and SMS&#x27;&gt;, False, &#x27;http://www.web2py.com/book/default/chapter/08&#x27;), (&lt;lazyT &#x27;Access Control&#x27;&gt;, False, &#x27;http://www.web2py.com/book/default/chapter/09&#x27;), (&lt;lazyT &#x27;Services&#x27;&gt;, False, &#x27;http://www.web2py.com/book/default/chapter/10&#x27;), (&lt;lazyT &#x27;Ajax Recipes&#x27;&gt;, False, &#x27;http://www.web2py.com/book/default/chapter/11&#x27;), (&lt;lazyT &#x27;Components and Plugins&#x27;&gt;, False, &#x27;http://www.web2py.com/book/default/chapter/12&#x27;), (&lt;lazyT &#x27;Deployment Recipes&#x27;&gt;, False, &#x27;http://www.web2py.com/book/default/chapter/13&#x27;), (&lt;lazyT &#x27;Other Recipes&#x27;&gt;, False, &#x27;http://www.web2py.com/book/default/chapter/14&#x27;), (&lt;lazyT &#x27;Buy this book&#x27;&gt;, False, &#x27;http://stores.lulu.com/web2py&#x27;)]</div></td></tr></table></div></td></tr><tr><td><div><table><tr><td><div>Community</div></td></tr><tr><td><div>False</div></td></tr><tr><td><div>None</div></td></tr><tr><td><div>[(&lt;lazyT &#x27;Groups&#x27;&gt;, False, &#x27;http://www.web2py.com/examples/default/usergroups&#x27;), (&lt;lazyT &#x27;Twitter&#x27;&gt;, False, &#x27;http://twitter.com/web2py&#x27;), (&lt;lazyT &#x27;Live Chat&#x27;&gt;, False, &#x27;http://webchat.freenode.net/?channels=web2py&#x27;)]</div></td></tr></table></div></td></tr><tr><td><div><table><tr><td><div>Plugins</div></td></tr><tr><td><div>False</div></td></tr><tr><td><div>None</div></td></tr><tr><td><div>[(&#x27;plugin_wiki&#x27;, False, &#x27;http://web2py.com/examples/default/download&#x27;), (&lt;lazyT &#x27;Other Plugins&#x27;&gt;, False, &#x27;http://web2py.com/plugins&#x27;), (&lt;lazyT &#x27;Layout Plugins&#x27;&gt;, False, &#x27;http://web2py.com/layouts&#x27;)]</div></td></tr></table></div></td></tr></table></div></td></tr></table></div></td></tr></table></div></td></tr><tr><td style="font-weight:bold;vertical-align:top">meta</td><td valign="top">:</td><td><div><table><tr><td style="font-weight:bold;vertical-align:top">author</td><td valign="top">:</td><td><div>Your Name &lt;you@example.com&gt;</div></td></tr><tr><td style="font-weight:bold;vertical-align:top">description</td><td valign="top">:</td><td><div>a cool new app</div></td></tr><tr><td style="font-weight:bold;vertical-align:top">generator</td><td valign="top">:</td><td><div>Web2py Web Framework</div></td></tr><tr><td style="font-weight:bold;vertical-align:top">keywords</td><td valign="top">:</td><td><div>web2py, python, framework</div></td></tr></table></div></td></tr><tr><td style="font-weight:bold;vertical-align:top">models_to_run</td><td valign="top">:</td><td><div><table><tr><td><div>^\\w+\\.py$</div></td></tr><tr><td><div>^default/\\w+\\.py$</div></td></tr><tr><td><div>^default/xmlurl/\\w+\\.py$</div></td></tr></table></div></td></tr><tr><td style="font-weight:bold;vertical-align:top">postprocessing</td><td valign="top">:</td><td><div><table></table></div></td></tr><tr><td style="font-weight:bold;vertical-align:top">session_cookie_expires</td><td valign="top">:</td><td><div>None</div></td></tr><tr><td style="font-weight:bold;vertical-align:top">session_data_name</td><td valign="top">:</td><td><div>session_data_moviedb</div></td></tr><tr><td style="font-weight:bold;vertical-align:top">session_file</td><td valign="top">:</td><td><div>None</div></td></tr><tr><td style="font-weight:bold;vertical-align:top">session_filename</td><td valign="top">:</td><td><div>/var/www/web2py/applications/moviedb/sessions/127.0.0.1-4bfa9bed-e627-4956-9770-9f8dda731536</div></td></tr><tr><td style="font-weight:bold;vertical-align:top">session_id</td><td valign="top">:</td><td><div>127.0.0.1-4bfa9bed-e627-4956-9770-9f8dda731536</div></td></tr><tr><td style="font-weight:bold;vertical-align:top">session_id_name</td><td valign="top">:</td><td><div>session_id_moviedb</div></td></tr><tr><td style="font-weight:bold;vertical-align:top">session_new</td><td valign="top">:</td><td><div>False</div></td></tr><tr><td style="font-weight:bold;vertical-align:top">session_storage_type</td><td valign="top">:</td><td><div>file</div></td></tr><tr><td style="font-weight:bold;vertical-align:top">status</td><td valign="top">:</td><td><div>200</div></td></tr><tr><td style="font-weight:bold;vertical-align:top">subtitle</td><td valign="top">:</td><td><div>Personalizzami!</div></td></tr><tr><td style="font-weight:bold;vertical-align:top">title</td><td valign="top">:</td><td><div>Moviedb</div></td></tr><tr><td style="font-weight:bold;vertical-align:top">view</td><td valign="top">:</td><td><div>default/xmlurl.html</div></td></tr></table></div>'
tRp558
sS'locals'
p559
(dp560
S'self'
p561
S'<xmlrpclib.Unmarshaller instance>'
p562
sssS'traceback'
p563
S'Traceback (most recent call last):\n  File "/var/www/web2py/gluon/restricted.py", line 212, in restricted\n    exec ccode in environment\n  File "/var/www/web2py/applications/moviedb/views/generic.html", line 92, in <module>\n  File "/var/www/web2py/gluon/globals.py", line 203, in write\n    self.body.write(xmlescape(data))\n  File "/var/www/web2py/gluon/html.py", line 120, in xmlescape\n    return data.xml()\n  File "/var/www/web2py/gluon/html.py", line 919, in xml\n    (fa, co) = self._xml()\n  File "/var/www/web2py/gluon/html.py", line 910, in _xml\n    self.components])\n  File "/var/www/web2py/gluon/html.py", line 120, in xmlescape\n    return data.xml()\n  File "/var/www/web2py/gluon/html.py", line 919, in xml\n    (fa, co) = self._xml()\n  File "/var/www/web2py/gluon/html.py", line 910, in _xml\n    self.components])\n  File "/var/www/web2py/gluon/html.py", line 120, in xmlescape\n    return data.xml()\n  File "/var/www/web2py/gluon/html.py", line 919, in xml\n    (fa, co) = self._xml()\n  File "/var/www/web2py/gluon/html.py", line 910, in _xml\n    self.components])\n  File "/var/www/web2py/gluon/html.py", line 120, in xmlescape\n    return data.xml()\n  File "/var/www/web2py/gluon/html.py", line 919, in xml\n    (fa, co) = self._xml()\n  File "/var/www/web2py/gluon/html.py", line 910, in _xml\n    self.components])\n  File "/var/www/web2py/gluon/html.py", line 120, in xmlescape\n    return data.xml()\n  File "/var/www/web2py/gluon/html.py", line 919, in xml\n    (fa, co) = self._xml()\n  File "/var/www/web2py/gluon/html.py", line 910, in _xml\n    self.components])\n  File "/var/www/web2py/gluon/html.py", line 120, in xmlescape\n    return data.xml()\n  File "/usr/lib/python2.7/xmlrpclib.py", line 1224, in __call__\n    return self.__send(self.__name, args)\n  File "/usr/lib/python2.7/xmlrpclib.py", line 1578, in __request\n    verbose=self.__verbose\n  File "/usr/lib/python2.7/xmlrpclib.py", line 1264, in request\n    return self.single_request(host, handler, request_body, verbose)\n  File "/usr/lib/python2.7/xmlrpclib.py", line 1297, in single_request\n    return self.parse_response(response)\n  File "/usr/lib/python2.7/xmlrpclib.py", line 1473, in parse_response\n    return u.close()\n  File "/usr/lib/python2.7/xmlrpclib.py", line 793, in close\n    raise Fault(**self._stack[0])\nFault: <Fault 1: \'<type \\\'exceptions.Exception\\\'>:method "xml" is not supported\'>\n'
p564
s.